; Function Attrs: nounwind uwtable
define void @Cmd_HistoryRead(ptr noundef readonly captures(none) %0) local_unnamed_addr #0 {
  %2 = alloca [32768 x i8], align 16
  call void @llvm.lifetime.start.p0(i64 32768, ptr nonnull %2) #17
  %3 = tail call noalias ptr @fopen(ptr noundef nonnull @.str.10, ptr noundef nonnull @.str.11)
  %4 = icmp eq ptr %3, null
  br i1 %4, label %51, label %.preheader

.preheader:                                       ; preds = %1
  %5 = call ptr @fgets(ptr noundef nonnull %2, i32 noundef 32768, ptr noundef nonnull %3)
  %.not5 = icmp eq ptr %5, null
  br i1 %.not5, label %._crit_edge, label %.lr.ph

.lr.ph:                                           ; preds = %.preheader
  %6 = getelementptr inbounds nuw i8, ptr %0, i64 40
  br label %7

7:                                                ; preds = %.lr.ph, %Vec_PtrPush.exit
  %8 = call i64 @strlen(ptr noundef nonnull dereferenceable(1) %2) #18
  %9 = shl i64 %8, 32
  %sext = add i64 %9, -4294967296
  %10 = ashr exact i64 %sext, 32
  %11 = getelementptr inbounds [32768 x i8], ptr %2, i64 0, i64 %10
  %12 = load i8, ptr %11, align 1, !tbaa !23
  %13 = icmp eq i8 %12, 10
  br i1 %13, label %14, label %15

14:                                               ; preds = %7
  store i8 0, ptr %11, align 1, !tbaa !23
  br label %15

15:                                               ; preds = %14, %7
  %16 = load ptr, ptr %6, align 8, !tbaa !24
  %17 = call ptr @Extra_UtilStrsav(ptr noundef nonnull %2) #17
  %18 = getelementptr inbounds nuw i8, ptr %16, i64 4
  %19 = load i32, ptr %18, align 4, !tbaa !25
  %20 = load i32, ptr %16, align 8, !tbaa !31
  %21 = icmp eq i32 %19, %20
  br i1 %21, label %22, label %.Vec_PtrGrow.exit11_crit_edge.i

.Vec_PtrGrow.exit11_crit_edge.i:                  ; preds = %15
  %.phi.trans.insert.i = getelementptr inbounds nuw i8, ptr %16, i64 8
  %.pre.i = load ptr, ptr %.phi.trans.insert.i, align 8, !tbaa !27
  br label %Vec_PtrPush.exit

22:                                               ; preds = %15
  %23 = icmp slt i32 %19, 16
  br i1 %23, label %24, label %32

24:                                               ; preds = %22
  %25 = getelementptr inbounds nuw i8, ptr %16, i64 8
  %26 = load ptr, ptr %25, align 8, !tbaa !27
  %.not9.i.i = icmp eq ptr %26, null
  br i1 %.not9.i.i, label %29, label %27

27:                                               ; preds = %24
  %28 = call dereferenceable_or_null(128) ptr @realloc(ptr noundef nonnull %26, i64 noundef 128) #19
  br label %Vec_PtrGrow.exit.i

29:                                               ; preds = %24
  %30 = call noalias dereferenceable_or_null(128) ptr @malloc(i64 noundef 128) #20
  br label %Vec_PtrGrow.exit.i

Vec_PtrGrow.exit.i:                               ; preds = %29, %27
  %31 = phi ptr [ %28, %27 ], [ %30, %29 ]
  store ptr %31, ptr %25, align 8, !tbaa !27
  store i32 16, ptr %16, align 8, !tbaa !31
  br label %Vec_PtrPush.exit

32:                                               ; preds = %22
  %33 = shl nuw nsw i32 %19, 1
  %34 = getelementptr inbounds nuw i8, ptr %16, i64 8
  %35 = load ptr, ptr %34, align 8, !tbaa !27
  %.not9.i10.i = icmp eq ptr %35, null
  %36 = zext nneg i32 %33 to i64
  %37 = shl nuw nsw i64 %36, 3
  br i1 %.not9.i10.i, label %40, label %38

38:                                               ; preds = %32
  %39 = call ptr @realloc(ptr noundef nonnull %35, i64 noundef %37) #19
  br label %42

40:                                               ; preds = %32
  %41 = call noalias ptr @malloc(i64 noundef %37) #20
  br label %42

42:                                               ; preds = %40, %38
  %43 = phi ptr [ %39, %38 ], [ %41, %40 ]
  store ptr %43, ptr %34, align 8, !tbaa !27
  store i32 %33, ptr %16, align 8, !tbaa !31
  br label %Vec_PtrPush.exit

Vec_PtrPush.exit:                                 ; preds = %.Vec_PtrGrow.exit11_crit_edge.i, %Vec_PtrGrow.exit.i, %42
  %44 = phi ptr [ %.pre.i, %.Vec_PtrGrow.exit11_crit_edge.i ], [ %43, %42 ], [ %31, %Vec_PtrGrow.exit.i ]
  %45 = load i32, ptr %18, align 4, !tbaa !25
  %46 = add nsw i32 %45, 1
  store i32 %46, ptr %18, align 4, !tbaa !25
  %47 = sext i32 %45 to i64
  %48 = getelementptr inbounds ptr, ptr %44, i64 %47
  store ptr %17, ptr %48, align 8, !tbaa !28
  %49 = call ptr @fgets(ptr noundef nonnull %2, i32 noundef 32768, ptr noundef nonnull %3)
  %.not = icmp eq ptr %49, null
  br i1 %.not, label %._crit_edge, label %7, !llvm.loop !35

._crit_edge:                                      ; preds = %Vec_PtrPush.exit, %.preheader
  %50 = call i32 @fclose(ptr noundef nonnull %3)
  br label %51

51:                                               ; preds = %1, %._crit_edge
  call void @llvm.lifetime.end.p0(i64 32768, ptr nonnull %2) #17
  ret void
}